target datalayout = "e-m:e-p270:32:32-p271:32:32-p272:64:64-i64:64-i128:128-f80:128-n8:16:32:64-S128"
target triple = "x86_64-pc-linux-gnu"

%"struct.gmx::EnumerationArray.49" = type { [42 x ptr] }
%struct.DirStack = type { i32, ptr }

@_ZL9necessary = internal global %"struct.gmx::EnumerationArray.49" zeroinitializer, align 8

; Function Attrs: mustprogress nounwind uwtable
define linkonce_odr noundef nonnull align 8 dereferenceable(8) ptr @_ZN3gmx16EnumerationArrayI9DirectivePS1_LS1_42EEixES1_(ptr noundef nonnull align 8 dereferenceable(336) %0, i32 noundef %1) #1 comdat align 2 {
  %3 = alloca ptr, align 8
  %4 = alloca i32, align 4
  store ptr %0, ptr %3, align 8, !tbaa !277
  store i32 %1, ptr %4, align 4, !tbaa !4
  %5 = load ptr, ptr %3, align 8
  %6 = getelementptr inbounds nuw %"struct.gmx::EnumerationArray.49", ptr %5, i32 0, i32 0
  %7 = load i32, ptr %4, align 4, !tbaa !4
  %8 = sext i32 %7 to i64
  %9 = getelementptr inbounds nuw [42 x ptr], ptr %6, i64 0, i64 %8
  ret ptr %9
}

; Function Attrs: mustprogress nounwind uwtable
define noundef i32 @_Z9DS_SearchP8DirStack9Directive(ptr noundef %0, i32 noundef %1) #1 {
  %3 = alloca ptr, align 8
  %4 = alloca i32, align 4
  %5 = alloca ptr, align 8
  store ptr %0, ptr %3, align 8, !tbaa !275
  store i32 %1, ptr %4, align 4, !tbaa !4
  call void @llvm.lifetime.start.p0(i64 8, ptr %5) #12
  %6 = load ptr, ptr %3, align 8, !tbaa !275
  store ptr %6, ptr %5, align 8, !tbaa !275
  br label %7

7:                                                ; preds = %18, %2
  %8 = load ptr, ptr %5, align 8, !tbaa !275
  %9 = icmp ne ptr %8, null
  br i1 %9, label %10, label %16

10:                                               ; preds = %7
  %11 = load ptr, ptr %5, align 8, !tbaa !275
  %12 = getelementptr inbounds nuw %struct.DirStack, ptr %11, i32 0, i32 0
  %13 = load i32, ptr %12, align 8, !tbaa !284
  %14 = load i32, ptr %4, align 4, !tbaa !4
  %15 = icmp ne i32 %13, %14
  br label %16

16:                                               ; preds = %10, %7
  %17 = phi i1 [ false, %7 ], [ %15, %10 ]
  br i1 %17, label %18, label %22

18:                                               ; preds = %16
  %19 = load ptr, ptr %5, align 8, !tbaa !275
  %20 = getelementptr inbounds nuw %struct.DirStack, ptr %19, i32 0, i32 1
  %21 = load ptr, ptr %20, align 8, !tbaa !281
  store ptr %21, ptr %5, align 8, !tbaa !275
  br label %7, !llvm.loop !285

22:                                               ; preds = %16
  %23 = load ptr, ptr %5, align 8, !tbaa !275
  %24 = icmp ne ptr %23, null
  %25 = zext i1 %24 to i32
  call void @llvm.lifetime.end.p0(i64 8, ptr %5) #12
  ret i32 %25
}

; Function Attrs: mustprogress nounwind uwtable
define noundef i32 @_Z14DS_Check_OrderP8DirStack9Directive(ptr noundef %0, i32 noundef %1) #1 {
  %3 = alloca i32, align 4
  %4 = alloca ptr, align 8
  %5 = alloca i32, align 4
  %6 = alloca i32, align 4
  %7 = alloca i32, align 4
  %8 = alloca i32, align 4
  store ptr %0, ptr %4, align 8, !tbaa !275
  store i32 %1, ptr %5, align 4, !tbaa !4
  call void @llvm.lifetime.start.p0(i64 4, ptr %6) #12
  call void @llvm.lifetime.start.p0(i64 4, ptr %7) #12
  store i32 0, ptr %7, align 4, !tbaa !13
  %9 = load i32, ptr %5, align 4, !tbaa !4
  %10 = icmp slt i32 %9, 11
  br i1 %10, label %11, label %16

11:                                               ; preds = %2
  %12 = load ptr, ptr %4, align 8, !tbaa !275
  %13 = call noundef i32 @_Z9DS_SearchP8DirStack9Directive(ptr noundef %12, i32 noundef 11)
  %14 = icmp ne i32 %13, 0
  br i1 %14, label %15, label %16

15:                                               ; preds = %11
  store i32 0, ptr %3, align 4
  store i32 1, ptr %8, align 4
  br label %45

16:                                               ; preds = %11, %2
  %17 = load i32, ptr %5, align 4, !tbaa !4
  %18 = call noundef nonnull align 8 dereferenceable(8) ptr @_ZN3gmx16EnumerationArrayI9DirectivePS1_LS1_42EEixES1_(ptr noundef nonnull align 8 dereferenceable(336) @_ZL9necessary, i32 noundef %17)
  %19 = load ptr, ptr %18, align 8, !tbaa !106
  %20 = getelementptr inbounds i32, ptr %19, i64 0
  %21 = load i32, ptr %20, align 4, !tbaa !4
  %22 = icmp eq i32 %21, 41
  br i1 %22, label %23, label %24

23:                                               ; preds = %16
  store i32 1, ptr %3, align 4
  store i32 1, ptr %8, align 4
  br label %45

24:                                               ; preds = %16
  br label %25

25:                                               ; preds = %40, %24
  %26 = load i32, ptr %5, align 4, !tbaa !4
  %27 = call noundef nonnull align 8 dereferenceable(8) ptr @_ZN3gmx16EnumerationArrayI9DirectivePS1_LS1_42EEixES1_(ptr noundef nonnull align 8 dereferenceable(336) @_ZL9necessary, i32 noundef %26)
  %28 = load ptr, ptr %27, align 8, !tbaa !106
  %29 = load i32, ptr %7, align 4, !tbaa !13
  %30 = add nsw i32 %29, 1
  store i32 %30, ptr %7, align 4, !tbaa !13
  %31 = sext i32 %29 to i64
  %32 = getelementptr inbounds i32, ptr %28, i64 %31
  %33 = load i32, ptr %32, align 4, !tbaa !4
  store i32 %33, ptr %6, align 4, !tbaa !4
  %34 = load ptr, ptr %4, align 8, !tbaa !275
  %35 = load i32, ptr %6, align 4, !tbaa !4
  %36 = call noundef i32 @_Z9DS_SearchP8DirStack9Directive(ptr noundef %34, i32 noundef %35)
  %37 = icmp ne i32 %36, 0
  br i1 %37, label %38, label %39

38:                                               ; preds = %25
  store i32 1, ptr %3, align 4
  store i32 1, ptr %8, align 4
  br label %45

39:                                               ; preds = %25
  br label %40

40:                                               ; preds = %39
  %41 = load i32, ptr %6, align 4, !tbaa !4
  %42 = icmp ne i32 %41, 41
  br i1 %42, label %25, label %43, !llvm.loop !286

43:                                               ; preds = %40
  br label %44

44:                                               ; preds = %43
  store i32 0, ptr %3, align 4
  store i32 1, ptr %8, align 4
  br label %45

45:                                               ; preds = %44, %38, %23, %15
  call void @llvm.lifetime.end.p0(i64 4, ptr %7) #12
  call void @llvm.lifetime.end.p0(i64 4, ptr %6) #12
  %46 = load i32, ptr %3, align 4
  ret i32 %46
}