; Function Attrs: mustprogress nofree norecurse nosync nounwind willreturn memory(read, inaccessiblemem: none) uwtable
define noundef range(i32 0, 2) i32 @_Z14DS_Check_OrderP8DirStack9Directive(ptr noundef readonly %0, i32 noundef %1) local_unnamed_addr #17 {
  %3 = icmp sgt i32 %1, 10
  %.not8.i = icmp eq ptr %0, null
  %or.cond = or i1 %.not8.i, %3
  br i1 %or.cond, label %_Z9DS_SearchP8DirStack9Directive.exit.thread, label %.lr.ph.i

.lr.ph.i:                                         ; preds = %2, %5
  %.05.i = phi ptr [ %7, %5 ], [ %0, %2 ]
  %4 = load i32, ptr %.05.i, align 8, !tbaa !74
  %.not.i = icmp eq i32 %4, 11
  br i1 %.not.i, label %_Z9DS_SearchP8DirStack9Directive.exit, label %5

5:                                                ; preds = %.lr.ph.i
  %6 = getelementptr inbounds nuw i8, ptr %.05.i, i64 8
  %7 = load ptr, ptr %6, align 8, !tbaa !71
  %.not9.i = icmp eq ptr %7, null
  br i1 %.not9.i, label %_Z9DS_SearchP8DirStack9Directive.exit.thread, label %.lr.ph.i, !llvm.loop !75

_Z9DS_SearchP8DirStack9Directive.exit.thread:     ; preds = %5, %2
  %8 = sext i32 %1 to i64
  %9 = getelementptr inbounds nuw [42 x ptr], ptr @_ZL9necessary, i64 0, i64 %8
  %10 = load ptr, ptr %9, align 8, !tbaa !65
  %11 = load i32, ptr %10, align 4, !tbaa !28
  %12 = icmp eq i32 %11, 41
  %brmerge = or i1 %12, %.not8.i
  %.mux = zext i1 %12 to i32
  br i1 %brmerge, label %_Z9DS_SearchP8DirStack9Directive.exit, label %.lr.ph.i12.preheader

.lr.ph.i12.preheader:                             ; preds = %_Z9DS_SearchP8DirStack9Directive.exit.thread, %.loopexit
  %indvars.iv = phi i64 [ %indvars.iv.next, %.loopexit ], [ 0, %_Z9DS_SearchP8DirStack9Directive.exit.thread ]
  %13 = getelementptr inbounds nuw i32, ptr %10, i64 %indvars.iv
  %14 = load i32, ptr %13, align 4, !tbaa !28
  br label %.lr.ph.i12

.lr.ph.i12:                                       ; preds = %.lr.ph.i12.preheader, %16
  %.05.i13 = phi ptr [ %18, %16 ], [ %0, %.lr.ph.i12.preheader ]
  %15 = load i32, ptr %.05.i13, align 8, !tbaa !74
  %.not.i14 = icmp eq i32 %15, %14
  br i1 %.not.i14, label %_Z9DS_SearchP8DirStack9Directive.exit, label %16

16:                                               ; preds = %.lr.ph.i12
  %17 = getelementptr inbounds nuw i8, ptr %.05.i13, i64 8
  %18 = load ptr, ptr %17, align 8, !tbaa !71
  %.not9.i15 = icmp eq ptr %18, null
  br i1 %.not9.i15, label %.loopexit, label %.lr.ph.i12, !llvm.loop !75

.loopexit:                                        ; preds = %16
  %indvars.iv.next = add nuw nsw i64 %indvars.iv, 1
  %.not10 = icmp eq i32 %14, 41
  br i1 %.not10, label %_Z9DS_SearchP8DirStack9Directive.exit, label %.lr.ph.i12.preheader, !llvm.loop !76

_Z9DS_SearchP8DirStack9Directive.exit:            ; preds = %.lr.ph.i, %.loopexit, %.lr.ph.i12, %_Z9DS_SearchP8DirStack9Directive.exit.thread
  %.08 = phi i32 [ %.mux, %_Z9DS_SearchP8DirStack9Directive.exit.thread ], [ 1, %.lr.ph.i12 ], [ 0, %.loopexit ], [ 0, %.lr.ph.i ]
  ret i32 %.08
}